; Function Attrs: mustprogress nofree norecurse nosync nounwind willreturn memory(read, inaccessiblemem: none) uwtable
define internal noundef i32 @_ZN3ue212_GLOBAL__N_114NFABuilderImpl13getAssertFlagEj(ptr nocapture noundef nonnull readonly align 8 dereferenceable(116) %this, i32 noundef %pos) unnamed_addr #11 align 2 {
entry:
  %0 = getelementptr inbounds i8, ptr %this, i64 88
  %this.val = load ptr, ptr %0, align 8
  %conv.i = zext i32 %pos to i64
  %add.ptr.i.i = getelementptr inbounds %"class.ue2::graph_detail::vertex_descriptor", ptr %this.val, i64 %conv.i
  %retval.sroa.0.0.copyload.i = load ptr, ptr %add.ptr.i.i, align 8
  %assert_flags = getelementptr inbounds i8, ptr %retval.sroa.0.0.copyload.i, i64 88
  %1 = load i32, ptr %assert_flags, align 8
  ret i32 %1
}